(lp0
S'Area_6_conferenceRoom_1'
p1
aS'Area_6_copyRoom_1'
p2
aS'Area_6_hallway_1'
p3
aS'Area_6_hallway_2'
p4
aS'Area_6_hallway_3'
p5
aS'Area_6_hallway_4'
p6
aS'Area_6_hallway_5'
p7
aS'Area_6_hallway_6'
p8
aS'Area_6_lounge_1'
p9
aS'Area_6_office_1'
p10
aS'Area_6_office_10'
p11
aS'Area_6_office_11'
p12
aS'Area_6_office_12'
p13
aS'Area_6_office_13'
p14
aS'Area_6_office_14'
p15
aS'Area_6_office_15'
p16
aS'Area_6_office_16'
p17
aS'Area_6_office_17'
p18
aS'Area_6_office_18'
p19
aS'Area_6_office_19'
p20
aS'Area_6_office_2'
p21
aS'Area_6_office_20'
p22
aS'Area_6_office_21'
p23
aS'Area_6_office_22'
p24
aS'Area_6_office_23'
p25
aS'Area_6_office_24'
p26
aS'Area_6_office_25'
p27
aS'Area_6_office_26'
p28
aS'Area_6_office_27'
p29
aS'Area_6_office_28'
p30
aS'Area_6_office_29'
p31
aS'Area_6_office_3'
p32
aS'Area_6_office_30'
p33
aS'Area_6_office_31'
p34
aS'Area_6_office_32'
p35
aS'Area_6_office_33'
p36
aS'Area_6_office_34'
p37
aS'Area_6_office_35'
p38
aS'Area_6_office_36'
p39
aS'Area_6_office_37'
p40
aS'Area_6_office_4'
p41
aS'Area_6_office_5'
p42
aS'Area_6_office_6'
p43
aS'Area_6_office_7'
p44
aS'Area_6_office_8'
p45
aS'Area_6_office_9'
p46
aS'Area_6_openspace_1'
p47
aS'Area_6_pantry_1'
p48
a.